target datalayout = "e-m:e-p270:32:32-p271:32:32-p272:64:64-i64:64-i128:128-f80:128-n8:16:32:64-S128"
target triple = "x86_64-pc-linux-gnu"

%struct.SDL_Properties = type { ptr, ptr }
%struct.SDL_Property = type { i32, %union.anon, ptr, ptr, ptr }
%union.anon = type { ptr }

@SDL_properties = internal global ptr null, align 8

; Function Attrs: nounwind uwtable
define hidden zeroext i1 @SDL_GetBooleanProperty_REAL(i32 noundef %0, ptr noundef %1, i1 noundef zeroext %2) #0 {
  %4 = alloca i1, align 1
  %5 = alloca i32, align 4
  %6 = alloca ptr, align 8
  %7 = alloca i8, align 1
  %8 = alloca ptr, align 8
  %9 = alloca i8, align 1
  %10 = alloca i32, align 4
  %11 = alloca ptr, align 8
  store i32 %0, ptr %5, align 4
  store ptr %1, ptr %6, align 8
  %12 = zext i1 %2 to i8
  store i8 %12, ptr %7, align 1
  call void @llvm.lifetime.start.p0(i64 8, ptr %8) #6
  store ptr null, ptr %8, align 8
  call void @llvm.lifetime.start.p0(i64 1, ptr %9) #6
  %13 = load i8, ptr %7, align 1, !range !3, !noundef !4
  %14 = trunc i8 %13 to i1
  %15 = select i1 %14, i32 1, i32 0
  %16 = icmp ne i32 %15, 0
  %17 = zext i1 %16 to i8
  store i8 %17, ptr %9, align 1
  %18 = load i32, ptr %5, align 4
  %19 = icmp ne i32 %18, 0
  br i1 %19, label %23, label %20

20:                                               ; preds = %3
  %21 = load i8, ptr %9, align 1, !range !3, !noundef !4
  %22 = trunc i8 %21 to i1
  store i1 %22, ptr %4, align 1
  store i32 1, ptr %10, align 4
  br label %91

23:                                               ; preds = %3
  %24 = load ptr, ptr %6, align 8
  %25 = icmp ne ptr %24, null
  br i1 %25, label %26, label %30

26:                                               ; preds = %23
  %27 = load ptr, ptr %6, align 8
  %28 = load i8, ptr %27, align 1
  %29 = icmp ne i8 %28, 0
  br i1 %29, label %33, label %30

30:                                               ; preds = %26, %23
  %31 = load i8, ptr %9, align 1, !range !3, !noundef !4
  %32 = trunc i8 %31 to i1
  store i1 %32, ptr %4, align 1
  store i32 1, ptr %10, align 4
  br label %91

33:                                               ; preds = %26
  %34 = load ptr, ptr @SDL_properties, align 8
  %35 = load i32, ptr %5, align 4
  %36 = zext i32 %35 to i64
  %37 = inttoptr i64 %36 to ptr
  %38 = call zeroext i1 @SDL_FindInHashTable(ptr noundef %34, ptr noundef %37, ptr noundef %8)
  %39 = load ptr, ptr %8, align 8
  %40 = icmp ne ptr %39, null
  br i1 %40, label %44, label %41

41:                                               ; preds = %33
  %42 = load i8, ptr %9, align 1, !range !3, !noundef !4
  %43 = trunc i8 %42 to i1
  store i1 %43, ptr %4, align 1
  store i32 1, ptr %10, align 4
  br label %91

44:                                               ; preds = %33
  %45 = load ptr, ptr %8, align 8
  %46 = getelementptr inbounds nuw %struct.SDL_Properties, ptr %45, i32 0, i32 1
  %47 = load ptr, ptr %46, align 8
  call void @SDL_LockMutex_REAL(ptr noundef %47)
  call void @llvm.lifetime.start.p0(i64 8, ptr %11) #6
  store ptr null, ptr %11, align 8
  %48 = load ptr, ptr %8, align 8
  %49 = getelementptr inbounds nuw %struct.SDL_Properties, ptr %48, i32 0, i32 0
  %50 = load ptr, ptr %49, align 8
  %51 = load ptr, ptr %6, align 8
  %52 = call zeroext i1 @SDL_FindInHashTable(ptr noundef %50, ptr noundef %51, ptr noundef %11)
  br i1 %52, label %53, label %85

53:                                               ; preds = %44
  %54 = load ptr, ptr %11, align 8
  %55 = getelementptr inbounds nuw %struct.SDL_Property, ptr %54, i32 0, i32 0
  %56 = load i32, ptr %55, align 8
  switch i32 %56, label %83 [
    i32 2, label %57
    i32 3, label %65
    i32 4, label %71
    i32 5, label %77
  ]

57:                                               ; preds = %53
  %58 = load ptr, ptr %11, align 8
  %59 = getelementptr inbounds nuw %struct.SDL_Property, ptr %58, i32 0, i32 1
  %60 = load ptr, ptr %59, align 8
  %61 = load i8, ptr %7, align 1, !range !3, !noundef !4
  %62 = trunc i8 %61 to i1
  %63 = call zeroext i1 @SDL_GetStringBoolean(ptr noundef %60, i1 noundef zeroext %62)
  %64 = zext i1 %63 to i8
  store i8 %64, ptr %9, align 1
  br label %84

65:                                               ; preds = %53
  %66 = load ptr, ptr %11, align 8
  %67 = getelementptr inbounds nuw %struct.SDL_Property, ptr %66, i32 0, i32 1
  %68 = load i64, ptr %67, align 8
  %69 = icmp ne i64 %68, 0
  %70 = zext i1 %69 to i8
  store i8 %70, ptr %9, align 1
  br label %84

71:                                               ; preds = %53
  %72 = load ptr, ptr %11, align 8
  %73 = getelementptr inbounds nuw %struct.SDL_Property, ptr %72, i32 0, i32 1
  %74 = load float, ptr %73, align 8
  %75 = fcmp une float %74, 0.000000e+00
  %76 = zext i1 %75 to i8
  store i8 %76, ptr %9, align 1
  br label %84

77:                                               ; preds = %53
  %78 = load ptr, ptr %11, align 8
  %79 = getelementptr inbounds nuw %struct.SDL_Property, ptr %78, i32 0, i32 1
  %80 = load i8, ptr %79, align 8, !range !3, !noundef !4
  %81 = trunc i8 %80 to i1
  %82 = zext i1 %81 to i8
  store i8 %82, ptr %9, align 1
  br label %84

83:                                               ; preds = %53
  br label %84

84:                                               ; preds = %83, %77, %71, %65, %57
  br label %85

85:                                               ; preds = %84, %44
  call void @llvm.lifetime.end.p0(i64 8, ptr %11) #6
  %86 = load ptr, ptr %8, align 8
  %87 = getelementptr inbounds nuw %struct.SDL_Properties, ptr %86, i32 0, i32 1
  %88 = load ptr, ptr %87, align 8
  call void @SDL_UnlockMutex_REAL(ptr noundef %88)
  %89 = load i8, ptr %9, align 1, !range !3, !noundef !4
  %90 = trunc i8 %89 to i1
  store i1 %90, ptr %4, align 1
  store i32 1, ptr %10, align 4
  br label %91

91:                                               ; preds = %85, %41, %30, %20
  call void @llvm.lifetime.end.p0(i64 1, ptr %9) #6
  call void @llvm.lifetime.end.p0(i64 8, ptr %8) #6
  %92 = load i1, ptr %4, align 1
  ret i1 %92
}