; Function Attrs: nounwind uwtable
define hidden zeroext i1 @SDL_GetBooleanProperty_REAL(i32 noundef %0, ptr noundef %1, i1 noundef zeroext %2) local_unnamed_addr #0 {
  %4 = alloca ptr, align 8
  %5 = alloca ptr, align 8
  call void @llvm.lifetime.start.p0(i64 8, ptr nonnull %4) #6
  store ptr null, ptr %4, align 8
  %.not = icmp eq i32 %0, 0
  %.not15 = icmp eq ptr %1, null
  %or.cond = or i1 %.not, %.not15
  br i1 %or.cond, label %43, label %6

6:                                                ; preds = %3
  %7 = load i8, ptr %1, align 1
  %.not16 = icmp eq i8 %7, 0
  br i1 %.not16, label %43, label %8

8:                                                ; preds = %6
  %9 = load ptr, ptr @SDL_properties, align 8
  %10 = zext i32 %0 to i64
  %11 = inttoptr i64 %10 to ptr
  %12 = call zeroext i1 @SDL_FindInHashTable(ptr noundef %9, ptr noundef nonnull %11, ptr noundef nonnull %4) #6
  %13 = load ptr, ptr %4, align 8
  %.not17 = icmp eq ptr %13, null
  br i1 %.not17, label %43, label %14

14:                                               ; preds = %8
  %15 = getelementptr inbounds nuw i8, ptr %13, i64 8
  %16 = load ptr, ptr %15, align 8
  call void @SDL_LockMutex_REAL(ptr noundef %16) #6
  call void @llvm.lifetime.start.p0(i64 8, ptr nonnull %5) #6
  store ptr null, ptr %5, align 8
  %17 = load ptr, ptr %4, align 8
  %18 = load ptr, ptr %17, align 8
  %19 = call zeroext i1 @SDL_FindInHashTable(ptr noundef %18, ptr noundef nonnull %1, ptr noundef nonnull %5) #6
  br i1 %19, label %20, label %39

20:                                               ; preds = %14
  %21 = load ptr, ptr %5, align 8
  %22 = load i32, ptr %21, align 8
  switch i32 %22, label %39 [
    i32 2, label %23
    i32 3, label %27
    i32 4, label %31
    i32 5, label %35
  ]

23:                                               ; preds = %20
  %24 = getelementptr inbounds nuw i8, ptr %21, i64 8
  %25 = load ptr, ptr %24, align 8
  %26 = call zeroext i1 @SDL_GetStringBoolean(ptr noundef %25, i1 noundef zeroext %2) #6
  br label %39

27:                                               ; preds = %20
  %28 = getelementptr inbounds nuw i8, ptr %21, i64 8
  %29 = load i64, ptr %28, align 8
  %30 = icmp ne i64 %29, 0
  br label %39

31:                                               ; preds = %20
  %32 = getelementptr inbounds nuw i8, ptr %21, i64 8
  %33 = load float, ptr %32, align 8
  %34 = fcmp une float %33, 0.000000e+00
  br label %39

35:                                               ; preds = %20
  %36 = getelementptr inbounds nuw i8, ptr %21, i64 8
  %37 = load i8, ptr %36, align 8, !range !5, !noundef !6
  %38 = trunc nuw i8 %37 to i1
  br label %39

39:                                               ; preds = %23, %27, %31, %35, %20, %14
  %.0 = phi i1 [ %2, %20 ], [ %38, %35 ], [ %34, %31 ], [ %30, %27 ], [ %26, %23 ], [ %2, %14 ]
  call void @llvm.lifetime.end.p0(i64 8, ptr nonnull %5) #6
  %40 = load ptr, ptr %4, align 8
  %41 = getelementptr inbounds nuw i8, ptr %40, i64 8
  %42 = load ptr, ptr %41, align 8
  call void @SDL_UnlockMutex_REAL(ptr noundef %42) #6
  br label %43

43:                                               ; preds = %8, %6, %3, %39
  %.011 = phi i1 [ %.0, %39 ], [ %2, %3 ], [ %2, %6 ], [ %2, %8 ]
  call void @llvm.lifetime.end.p0(i64 8, ptr nonnull %4) #6
  ret i1 %.011
}